target datalayout = "e-m:e-p270:32:32-p271:32:32-p272:64:64-i64:64-i128:128-f80:128-n8:16:32:64-S128"
target triple = "x86_64-pc-linux-gnu"

%struct.AVFloatDSPContext = type { ptr, ptr, ptr, ptr, ptr, ptr, ptr, ptr, ptr, ptr, ptr, ptr }

@ff_sine_64 = external global [64 x float], align 16
@ff_sine_128 = external global [128 x float], align 16

; Function Attrs: nounwind uwtable
define void @ff_atrac3p_imdct(ptr noundef %0, ptr noundef %1, ptr noundef %2, ptr noundef %3, ptr noundef %4, i32 noundef %5, i32 noundef %6) #4 {
  %8 = alloca ptr, align 8
  %9 = alloca ptr, align 8
  %10 = alloca ptr, align 8
  %11 = alloca ptr, align 8
  %12 = alloca ptr, align 8
  %13 = alloca i32, align 4
  %14 = alloca i32, align 4
  %15 = alloca i32, align 4
  %16 = alloca float, align 4
  store ptr %0, ptr %8, align 8, !tbaa !17
  store ptr %1, ptr %9, align 8, !tbaa !82
  store ptr %2, ptr %10, align 8, !tbaa !84
  store ptr %3, ptr %11, align 8, !tbaa !19
  store ptr %4, ptr %12, align 8, !tbaa !19
  store i32 %5, ptr %13, align 4, !tbaa !4
  store i32 %6, ptr %14, align 4, !tbaa !4
  call void @llvm.lifetime.start.p0(i64 4, ptr %15) #6
  %17 = load i32, ptr %14, align 4, !tbaa !4
  %18 = and i32 %17, 1
  %19 = icmp ne i32 %18, 0
  br i1 %19, label %20, label %53

20:                                               ; preds = %7
  store i32 0, ptr %15, align 4, !tbaa !4
  br label %21

21:                                               ; preds = %49, %20
  %22 = load i32, ptr %15, align 4, !tbaa !4
  %23 = icmp slt i32 %22, 64
  br i1 %23, label %24, label %52

24:                                               ; preds = %21
  br label %25

25:                                               ; preds = %24
  call void @llvm.lifetime.start.p0(i64 4, ptr %16) #6
  %26 = load ptr, ptr %11, align 8, !tbaa !19
  %27 = load i32, ptr %15, align 4, !tbaa !4
  %28 = sub nsw i32 127, %27
  %29 = sext i32 %28 to i64
  %30 = getelementptr inbounds float, ptr %26, i64 %29
  %31 = load float, ptr %30, align 4, !tbaa !8
  store float %31, ptr %16, align 4, !tbaa !8
  %32 = load ptr, ptr %11, align 8, !tbaa !19
  %33 = load i32, ptr %15, align 4, !tbaa !4
  %34 = sext i32 %33 to i64
  %35 = getelementptr inbounds float, ptr %32, i64 %34
  %36 = load float, ptr %35, align 4, !tbaa !8
  %37 = load ptr, ptr %11, align 8, !tbaa !19
  %38 = load i32, ptr %15, align 4, !tbaa !4
  %39 = sub nsw i32 127, %38
  %40 = sext i32 %39 to i64
  %41 = getelementptr inbounds float, ptr %37, i64 %40
  store float %36, ptr %41, align 4, !tbaa !8
  %42 = load float, ptr %16, align 4, !tbaa !8
  %43 = load ptr, ptr %11, align 8, !tbaa !19
  %44 = load i32, ptr %15, align 4, !tbaa !4
  %45 = sext i32 %44 to i64
  %46 = getelementptr inbounds float, ptr %43, i64 %45
  store float %42, ptr %46, align 4, !tbaa !8
  call void @llvm.lifetime.end.p0(i64 4, ptr %16) #6
  br label %47

47:                                               ; preds = %25
  br label %48

48:                                               ; preds = %47
  br label %49

49:                                               ; preds = %48
  %50 = load i32, ptr %15, align 4, !tbaa !4
  %51 = add nsw i32 %50, 1
  store i32 %51, ptr %15, align 4, !tbaa !4
  br label %21, !llvm.loop !85

52:                                               ; preds = %21
  br label %53

53:                                               ; preds = %52, %7
  %54 = load ptr, ptr %10, align 8, !tbaa !84
  %55 = load ptr, ptr %9, align 8, !tbaa !82
  %56 = load ptr, ptr %12, align 8, !tbaa !19
  %57 = load ptr, ptr %11, align 8, !tbaa !19
  call void %54(ptr noundef %55, ptr noundef %56, ptr noundef %57, i64 noundef 4)
  %58 = load i32, ptr %13, align 4, !tbaa !4
  %59 = and i32 %58, 2
  %60 = icmp ne i32 %59, 0
  br i1 %60, label %61, label %70

61:                                               ; preds = %53
  %62 = load ptr, ptr %12, align 8, !tbaa !19
  call void @llvm.memset.p0.i64(ptr align 4 %62, i8 0, i64 128, i1 false)
  %63 = load ptr, ptr %8, align 8, !tbaa !17
  %64 = getelementptr inbounds nuw %struct.AVFloatDSPContext, ptr %63, i32 0, i32 0
  %65 = load ptr, ptr %64, align 8, !tbaa !44
  %66 = load ptr, ptr %12, align 8, !tbaa !19
  %67 = getelementptr inbounds float, ptr %66, i64 32
  %68 = load ptr, ptr %12, align 8, !tbaa !19
  %69 = getelementptr inbounds float, ptr %68, i64 32
  call void %65(ptr noundef %67, ptr noundef %69, ptr noundef @ff_sine_64, i32 noundef 64)
  br label %76

70:                                               ; preds = %53
  %71 = load ptr, ptr %8, align 8, !tbaa !17
  %72 = getelementptr inbounds nuw %struct.AVFloatDSPContext, ptr %71, i32 0, i32 0
  %73 = load ptr, ptr %72, align 8, !tbaa !44
  %74 = load ptr, ptr %12, align 8, !tbaa !19
  %75 = load ptr, ptr %12, align 8, !tbaa !19
  call void %73(ptr noundef %74, ptr noundef %75, ptr noundef @ff_sine_128, i32 noundef 128)
  br label %76

76:                                               ; preds = %70, %61
  %77 = load i32, ptr %13, align 4, !tbaa !4
  %78 = and i32 %77, 1
  %79 = icmp ne i32 %78, 0
  br i1 %79, label %80, label %90

80:                                               ; preds = %76
  %81 = load ptr, ptr %8, align 8, !tbaa !17
  %82 = getelementptr inbounds nuw %struct.AVFloatDSPContext, ptr %81, i32 0, i32 7
  %83 = load ptr, ptr %82, align 8, !tbaa !86
  %84 = load ptr, ptr %12, align 8, !tbaa !19
  %85 = getelementptr inbounds float, ptr %84, i64 160
  %86 = load ptr, ptr %12, align 8, !tbaa !19
  %87 = getelementptr inbounds float, ptr %86, i64 160
  call void %83(ptr noundef %85, ptr noundef %87, ptr noundef @ff_sine_64, i32 noundef 64)
  %88 = load ptr, ptr %12, align 8, !tbaa !19
  %89 = getelementptr inbounds float, ptr %88, i64 224
  call void @llvm.memset.p0.i64(ptr align 4 %89, i8 0, i64 128, i1 false)
  br label %98

90:                                               ; preds = %76
  %91 = load ptr, ptr %8, align 8, !tbaa !17
  %92 = getelementptr inbounds nuw %struct.AVFloatDSPContext, ptr %91, i32 0, i32 7
  %93 = load ptr, ptr %92, align 8, !tbaa !86
  %94 = load ptr, ptr %12, align 8, !tbaa !19
  %95 = getelementptr inbounds float, ptr %94, i64 128
  %96 = load ptr, ptr %12, align 8, !tbaa !19
  %97 = getelementptr inbounds float, ptr %96, i64 128
  call void %93(ptr noundef %95, ptr noundef %97, ptr noundef @ff_sine_128, i32 noundef 128)
  br label %98

98:                                               ; preds = %90, %80
  call void @llvm.lifetime.end.p0(i64 4, ptr %15) #6
  ret void
}