; Function Attrs: nounwind uwtable
define void @ff_atrac3p_imdct(ptr noundef readonly captures(none) %0, ptr noundef %1, ptr noundef readonly captures(none) %2, ptr noundef %3, ptr noundef %4, i32 noundef %5, i32 noundef %6) local_unnamed_addr #4 {
  %8 = and i32 %6, 1
  %.not = icmp eq i32 %8, 0
  br i1 %.not, label %.loopexit, label %.preheader

.preheader:                                       ; preds = %7, %.preheader
  %indvars.iv = phi i64 [ %indvars.iv.next, %.preheader ], [ 0, %7 ]
  %9 = sub nuw nsw i64 127, %indvars.iv
  %10 = getelementptr inbounds nuw float, ptr %3, i64 %9
  %11 = load float, ptr %10, align 4, !tbaa !4
  %12 = getelementptr inbounds nuw float, ptr %3, i64 %indvars.iv
  %13 = load float, ptr %12, align 4, !tbaa !4
  store float %13, ptr %10, align 4, !tbaa !4
  store float %11, ptr %12, align 4, !tbaa !4
  %indvars.iv.next = add nuw nsw i64 %indvars.iv, 1
  %exitcond.not = icmp eq i64 %indvars.iv.next, 64
  br i1 %exitcond.not, label %.loopexit, label %.preheader, !llvm.loop !67

.loopexit:                                        ; preds = %.preheader, %7
  tail call void %2(ptr noundef %1, ptr noundef %4, ptr noundef %3, i64 noundef 4) #8
  %14 = and i32 %5, 2
  %.not31 = icmp eq i32 %14, 0
  br i1 %.not31, label %18, label %15

15:                                               ; preds = %.loopexit
  tail call void @llvm.memset.p0.i64(ptr noundef nonnull align 4 dereferenceable(128) %4, i8 0, i64 128, i1 false)
  %16 = load ptr, ptr %0, align 8, !tbaa !36
  %17 = getelementptr inbounds nuw i8, ptr %4, i64 128
  tail call void %16(ptr noundef nonnull %17, ptr noundef nonnull %17, ptr noundef nonnull @ff_sine_64, i32 noundef 64) #8
  br label %20

18:                                               ; preds = %.loopexit
  %19 = load ptr, ptr %0, align 8, !tbaa !36
  tail call void %19(ptr noundef %4, ptr noundef %4, ptr noundef nonnull @ff_sine_128, i32 noundef 128) #8
  br label %20

20:                                               ; preds = %18, %15
  %21 = and i32 %5, 1
  %.not32 = icmp eq i32 %21, 0
  %22 = getelementptr inbounds nuw i8, ptr %0, i64 56
  %23 = load ptr, ptr %22, align 8, !tbaa !68
  br i1 %.not32, label %27, label %24

24:                                               ; preds = %20
  %25 = getelementptr inbounds nuw i8, ptr %4, i64 640
  tail call void %23(ptr noundef nonnull %25, ptr noundef nonnull %25, ptr noundef nonnull @ff_sine_64, i32 noundef 64) #8
  %26 = getelementptr inbounds nuw i8, ptr %4, i64 896
  tail call void @llvm.memset.p0.i64(ptr noundef nonnull align 4 dereferenceable(128) %26, i8 0, i64 128, i1 false)
  br label %29

27:                                               ; preds = %20
  %28 = getelementptr inbounds nuw i8, ptr %4, i64 512
  tail call void %23(ptr noundef nonnull %28, ptr noundef nonnull %28, ptr noundef nonnull @ff_sine_128, i32 noundef 128) #8
  br label %29

29:                                               ; preds = %27, %24
  ret void
}